; Function Attrs: mustprogress nofree norecurse nosync nounwind willreturn memory(write, argmem: readwrite, inaccessiblemem: none) uwtable
define dso_local void @lua_setallocf(ptr noundef readonly captures(none) %0, ptr noundef %1, ptr noundef %2) local_unnamed_addr #0 {
  %4 = getelementptr inbounds nuw i8, ptr %0, i64 32
  %5 = load ptr, ptr %4, align 8, !tbaa !29
  %6 = getelementptr inbounds nuw i8, ptr %5, i64 24
  store ptr %2, ptr %6, align 8, !tbaa !63
  %7 = getelementptr inbounds nuw i8, ptr %5, i64 16
  store ptr %1, ptr %7, align 8, !tbaa !65
  ret void
}